Certificate:
    Data:
        Version: 3 (0x2)
        Serial Number:
            08:70:bc:c5:af:3f:db:95:9a:91:cb:6a:ee:ef:e4:65
        Signature Algorithm: sha256WithRSAEncryption
        Issuer: C = US, O = DigiCert Inc, OU = www.digicert.com, CN = DigiCert Assured ID Root CA
        Validity
            Not Before: Nov 18 12:00:00 2014 GMT
            Not After : Nov 18 12:00:00 2024 GMT
        Subject: C = NL, ST = Noord-Holland, L = Amsterdam, O = TERENA, CN = TERENA SSL CA 3
        Subject Public Key Info:
            Public Key Algorithm: rsaEncryption
                RSA Public-Key: (2048 bit)
                Modulus:
                    00:c5:76:0f:0f:d9:43:29:3b:6c:6d:d1:47:ad:de:
                    10:bf:23:c2:78:a8:4a:77:35:f1:23:5b:e0:4c:1e:
                    41:e7:c2:31:00:bd:88:37:45:75:dd:b9:02:10:80:
                    1e:8f:ed:64:23:04:45:a7:a0:39:3b:81:4d:cf:63:
                    3f:c2:49:ff:22:9e:88:b0:d2:96:b9:5c:8a:74:1f:
                    92:2a:2a:f2:12:c8:b7:68:54:b5:58:41:81:40:68:
                    06:1a:4f:85:29:fb:b5:4d:3c:0f:4f:3f:40:96:1b:
                    ce:a8:cc:5e:35:ff:64:98:f5:75:dd:74:54:05:a0:
                    36:11:04:12:24:55:63:ef:94:77:2e:77:f1:15:76:
                    ee:d3:a4:59:45:21:9f:a8:be:d1:27:ed:0a:e8:ab:
                    38:ca:3f:87:d1:da:f1:8f:b9:0b:1f:44:e7:e0:ad:
                    f3:95:c2:16:4d:ec:84:a3:3a:92:d4:cf:c6:7d:e6:
                    bd:cb:1a:40:4f:b3:54:b1:f3:8f:6f:0d:1e:e3:be:
                    49:a3:56:e4:07:bc:8d:a7:ce:1d:b0:5b:57:56:d1:
                    c4:1c:fc:98:65:d1:cd:46:2f:91:94:bf:45:85:49:
                    f8:6d:52:87:1c:02:56:01:27:16:ab:72:2e:f4:71:
                    e4:61:b5:20:a0:fa:26:69:6a:0a:f1:ab:9f:6d:b7:
                    cf:25
                Exponent: 65537 (0x10001)
        X509v3 extensions:
            X509v3 Basic Constraints: critical
                CA:TRUE, pathlen:0
            X509v3 Key Usage: critical
                Digital Signature, Certificate Sign, CRL Sign
            Authority Information Access: 
                OCSP - URI:http://ocsp.digicert.com
                CA Issuers - URI:http://cacerts.digicert.com/DigiCertAssuredIDRootCA.crt

            X509v3 CRL Distribution Points: 

                Full Name:
                  URI:http://crl3.digicert.com/DigiCertAssuredIDRootCA.crl

                Full Name:
                  URI:http://crl4.digicert.com/DigiCertAssuredIDRootCA.crl

            X509v3 Certificate Policies: 
                Policy: X509v3 Any Policy
                  CPS: https://www.digicert.com/CPS

            X509v3 Subject Key Identifier: 
                67:FD:88:20:14:27:98:C7:09:D2:25:19:BB:E9:51:11:63:75:50:62
            X509v3 Authority Key Identifier: 
                keyid:45:EB:A2:AF:F4:92:CB:82:31:2D:51:8B:A7:A7:21:9D:F3:6D:C8:0F

    Signature Algorithm: sha256WithRSAEncryption
         a9:28:35:7a:c4:7b:d6:da:27:1e:ac:98:cf:27:36:4f:11:32:
         74:74:e6:40:dd:1d:cd:f2:68:77:35:af:b3:8c:5d:c6:04:bf:
         15:f4:23:67:8b:b9:6f:97:04:eb:46:9d:c2:cd:c9:d1:a4:ae:
         81:2e:c9:ba:b1:e8:80:d0:1c:c9:39:c1:56:76:59:6c:9c:7d:
         e3:a9:f0:d3:d1:34:d8:3c:49:59:8b:1a:98:ce:bf:c6:f2:d8:
         30:35:ff:e9:6f:5d:a0:af:3a:ee:66:53:ae:aa:8c:69:c8:be:
         9a:a7:a0:7b:d8:82:4b:33:13:c8:07:f3:77:d7:f3:64:cd:9e:
         63:f9:42:27:53:ae:10:33:89:72:37:15:f1:be:f7:1e:35:a2:
         ce:c3:2d:f2:d7:b2:e6:0b:c7:69:c0:e5:1f:5f:7c:69:9b:7e:
         ce:26:1a:33:44:c3:ba:77:05:3b:ba:5d:3f:41:89:fa:16:3b:
         ee:04:6e:5b:ac:56:4b:ef:8c:70:f2:4a:7b:57:bd:19:6e:8b:
         36:07:54:26:2d:86:09:94:1f:5f:37:ab:f0:23:3f:8f:2c:5f:
         96:9e:47:71:a8:44:de:a9:b9:85:2f:b5:34:60:a5:5f:09:a0:
         9a:43:1d:d4:bf:2d:44:d6:8d:da:fd:75:cb:5f:16:a0:0e:61:
         c2:70:3d:36
-----BEGIN CERTIFICATE-----
MIIE+zCCA+OgAwIBAgIQCHC8xa8/25Wakctq7u/kZTANBgkqhkiG9w0BAQsFADBl
MQswCQYDVQQGEwJVUzEVMBMGA1UEChMMRGlnaUNlcnQgSW5jMRkwFwYDVQQLExB3
d3cuZGlnaWNlcnQuY29tMSQwIgYDVQQDExtEaWdpQ2VydCBBc3N1cmVkIElEIFJv
b3QgQ0EwHhcNMTQxMTE4MTIwMDAwWhcNMjQxMTE4MTIwMDAwWjBkMQswCQYDVQQG
EwJOTDEWMBQGA1UECBMNTm9vcmQtSG9sbGFuZDESMBAGA1UEBxMJQW1zdGVyZGFt
MQ8wDQYDVQQKEwZURVJFTkExGDAWBgNVBAMTD1RFUkVOQSBTU0wgQ0EgMzCCASIw
DQYJKoZIhvcNAQEBBQADggEPADCCAQoCggEBAMV2Dw/ZQyk7bG3RR63eEL8jwnio
Snc18SNb4EweQefCMQC9iDdFdd25AhCAHo/tZCMERaegOTuBTc9jP8JJ/yKeiLDS
lrlcinQfkioq8hLIt2hUtVhBgUBoBhpPhSn7tU08D08/QJYbzqjMXjX/ZJj1dd10
VAWgNhEEEiRVY++Udy538RV27tOkWUUhn6i+0SftCuirOMo/h9Ha8Y+5Cx9E5+Ct
85XCFk3shKM6ktTPxn3mvcsaQE+zVLHzj28NHuO+SaNW5Ae8jafOHbBbV1bRxBz8
mGXRzUYvkZS/RYVJ+G1ShxwCVgEnFqtyLvRx5GG1IKD6JmlqCvGrn223zyUCAwEA
AaOCAaYwggGiMBIGA1UdEwEB/wQIMAYBAf8CAQAwDgYDVR0PAQH/BAQDAgGGMHkG
CCsGAQUFBwEBBG0wazAkBggrBgEFBQcwAYYYaHR0cDovL29jc3AuZGlnaWNlcnQu
Y29tMEMGCCsGAQUFBzAChjdodHRwOi8vY2FjZXJ0cy5kaWdpY2VydC5jb20vRGln
aUNlcnRBc3N1cmVkSURSb290Q0EuY3J0MIGBBgNVHR8EejB4MDqgOKA2hjRodHRw
Oi8vY3JsMy5kaWdpY2VydC5jb20vRGlnaUNlcnRBc3N1cmVkSURSb290Q0EuY3Js
MDqgOKA2hjRodHRwOi8vY3JsNC5kaWdpY2VydC5jb20vRGlnaUNlcnRBc3N1cmVk
SURSb290Q0EuY3JsMD0GA1UdIAQ2MDQwMgYEVR0gADAqMCgGCCsGAQUFBwIBFhxo
dHRwczovL3d3dy5kaWdpY2VydC5jb20vQ1BTMB0GA1UdDgQWBBRn/YggFCeYxwnS
JRm76VERY3VQYjAfBgNVHSMEGDAWgBRF66Kv9JLLgjEtUYunpyGd823IDzANBgkq
hkiG9w0BAQsFAAOCAQEAqSg1esR71tonHqyYzyc2TxEydHTmQN0dzfJodzWvs4xd
xgS/FfQjZ4u5b5cE60adws3J0aSugS7JurHogNAcyTnBVnZZbJx946nw09E02DxJ
WYsamM6/xvLYMDX/6W9doK867mZTrqqMaci+mqege9iCSzMTyAfzd9fzZM2eY/lC
J1OuEDOJcjcV8b73HjWizsMt8tey5gvHacDlH198aZt+ziYaM0TDuncFO7pdP0GJ
+hY77gRuW6xWS++McPJKe1e9GW6LNgdUJi2GCZQfXzer8CM/jyxflp5HcahE3qm5
hS+1NGClXwmgmkMd1L8tRNaN2v11y18WoA5hwnA9Ng==
-----END CERTIFICATE-----
